target datalayout = "e-m:e-p270:32:32-p271:32:32-p272:64:64-i64:64-i128:128-f80:128-n8:16:32:64-S128"
target triple = "x86_64-pc-linux-gnu"

%"class.(anonymous namespace)::MergeCondVisitor" = type { %class.VNVisitor, %class.VDouble0, %class.VDouble0, %class.VDouble0, %class.VDouble0, ptr, ptr, ptr, ptr, i32, ptr, ptr }
%class.VNVisitor = type { %class.VNVisitorConst, %class.VNDeleter }
%class.VNVisitorConst = type { ptr }
%class.VNDeleter = type { %"class.std::vector" }
%"class.std::vector" = type { %"struct.std::_Vector_base" }
%"struct.std::_Vector_base" = type { %"struct.std::_Vector_base<AstNode *, std::allocator<AstNode *>>::_Vector_impl" }
%"struct.std::_Vector_base<AstNode *, std::allocator<AstNode *>>::_Vector_impl" = type { %"struct.std::_Vector_base<AstNode *, std::allocator<AstNode *>>::_Vector_impl_data" }
%"struct.std::_Vector_base<AstNode *, std::allocator<AstNode *>>::_Vector_impl_data" = type { ptr, ptr, ptr }
%class.VDouble0 = type { double }

; Function Attrs: mustprogress uwtable
define linkonce_odr dso_local void @_ZN9VNVisitor15iterateChildrenEP7AstNode(ptr noundef nonnull align 8 dereferenceable(32) %0, ptr noundef %1) #4 comdat align 2 {
  %3 = alloca ptr, align 8
  %4 = alloca ptr, align 8
  store ptr %0, ptr %3, align 8
  store ptr %1, ptr %4, align 8
  %5 = load ptr, ptr %3, align 8
  %6 = load ptr, ptr %4, align 8
  call void @_ZN7AstNode15iterateChildrenER9VNVisitor(ptr noundef nonnull align 8 dereferenceable(152) %6, ptr noundef nonnull align 8 dereferenceable(32) %5)
  ret void
}

; Function Attrs: mustprogress uwtable
define internal void @_ZN12_GLOBAL__N_116MergeCondVisitor5visitEP11AstNodeStmt(ptr noundef nonnull align 8 dereferenceable(120) %0, ptr noundef %1) unnamed_addr #4 align 2 {
  %3 = alloca ptr, align 8
  %4 = alloca ptr, align 8
  store ptr %0, ptr %3, align 8
  store ptr %1, ptr %4, align 8
  %5 = load ptr, ptr %3, align 8
  %6 = getelementptr inbounds %"class.(anonymous namespace)::MergeCondVisitor", ptr %5, i32 0, i32 5
  %7 = load ptr, ptr %6, align 8
  %8 = icmp ne ptr %7, null
  br i1 %8, label %9, label %13

9:                                                ; preds = %2
  %10 = load ptr, ptr %4, align 8
  %11 = call noundef zeroext i1 @_ZN12_GLOBAL__N_116MergeCondVisitor24addIfHelpfulElseEndMergeEP11AstNodeStmt(ptr noundef nonnull align 8 dereferenceable(120) %5, ptr noundef %10)
  br i1 %11, label %12, label %13

12:                                               ; preds = %9
  br label %15

13:                                               ; preds = %9, %2
  %14 = load ptr, ptr %4, align 8
  call void @_ZN9VNVisitor15iterateChildrenEP7AstNode(ptr noundef nonnull align 8 dereferenceable(32) %5, ptr noundef %14)
  br label %15

15:                                               ; preds = %13, %12
  ret void
}