; Function Attrs: mustprogress uwtable
define internal void @_ZN12_GLOBAL__N_116MergeCondVisitor5visitEP11AstNodeStmt(ptr noundef nonnull align 8 dereferenceable(120) %0, ptr noundef %1) unnamed_addr #3 align 2 {
  %3 = getelementptr inbounds i8, ptr %0, i64 64
  %4 = load ptr, ptr %3, align 8
  %.not = icmp eq ptr %4, null
  br i1 %.not, label %7, label %5

5:                                                ; preds = %2
  %6 = tail call fastcc noundef zeroext i1 @_ZN12_GLOBAL__N_116MergeCondVisitor24addIfHelpfulElseEndMergeEP11AstNodeStmt(ptr noundef nonnull align 8 dereferenceable(120) %0, ptr noundef %1)
  br i1 %6, label %8, label %7

7:                                                ; preds = %5, %2
  tail call void @_ZN7AstNode15iterateChildrenER9VNVisitor(ptr noundef nonnull align 8 dereferenceable(152) %1, ptr noundef nonnull align 8 dereferenceable(32) %0)
  br label %8

8:                                                ; preds = %5, %7
  ret void
}